target datalayout = "e-m:e-p270:32:32-p271:32:32-p272:64:64-i64:64-i128:128-f80:128-n8:16:32:64-S128"
target triple = "x86_64-unknown-linux-gnu"

%"class.folly::Range" = type { ptr, ptr }
%"class.std::__cxx11::basic_string" = type { %"struct.std::__cxx11::basic_string<char>::_Alloc_hider", i64, %union.anon }
%"struct.std::__cxx11::basic_string<char>::_Alloc_hider" = type { ptr }
%union.anon = type { i64, [8 x i8] }
%"class.proxygen::ParseURL" = type <{ %"class.folly::Range", %"class.folly::Range", %"class.std::__cxx11::basic_string", %"class.folly::Range", %"class.folly::Range", %"class.folly::Range", %"class.folly::Range", %"class.folly::Range", i16, i8, i8, [4 x i8] }>

@.str = private unnamed_addr constant [2 x i8] c":\00", align 1
@.str.2 = private unnamed_addr constant [2 x i8] c"[\00", align 1
@.str.3 = private unnamed_addr constant [2 x i8] c"]\00", align 1
@.str.5 = private unnamed_addr constant [19 x i8] c"index out of range\00", align 1

; Function Attrs: mustprogress uwtable
define linkonce_odr void @_ZN5folly5RangeIPKcEC2ISaIcES2_TnNS_6detail13IsCharPointerIT0_E10const_typeELi0EEERKNSt7__cxx1112basic_stringIcSt11char_traitsIcET_EENSG_9size_typeESJ_(ptr noundef nonnull align 8 dereferenceable(16) %this, ptr noundef nonnull align 8 dereferenceable(32) %str, i64 noundef %startFrom, i64 noundef %size) unnamed_addr #3 comdat align 2 {
entry:
  %args.addr.i = alloca ptr, align 8
  %this.addr = alloca ptr, align 8
  %str.addr = alloca ptr, align 8
  %startFrom.addr = alloca i64, align 8
  %size.addr = alloca i64, align 8
  store ptr %this, ptr %this.addr, align 8
  store ptr %str, ptr %str.addr, align 8
  store i64 %startFrom, ptr %startFrom.addr, align 8
  store i64 %size, ptr %size.addr, align 8
  %this1 = load ptr, ptr %this.addr, align 8
  %0 = load i64, ptr %startFrom.addr, align 8
  %1 = load ptr, ptr %str.addr, align 8
  %call = call noundef i64 @_ZNKSt7__cxx1112basic_stringIcSt11char_traitsIcESaIcEE4sizeEv(ptr noundef nonnull align 8 dereferenceable(32) %1) #12
  %cmp = icmp ugt i64 %0, %call
  br i1 %cmp, label %if.then, label %if.end

if.then:                                          ; preds = %entry
  store ptr @.str.5, ptr %args.addr.i, align 8
  %2 = load ptr, ptr %args.addr.i, align 8
  call void @_ZN5folly6detail16throw_exception_ISt12out_of_rangeJPKcEEEvDpT0_(ptr noundef %2) #14
  unreachable

_ZN5folly15throw_exceptionISt12out_of_rangeJRA19_KcEEEvDpOT0_.exit: ; No predecessors!
  unreachable

if.end:                                           ; preds = %entry
  %3 = load ptr, ptr %str.addr, align 8
  %call2 = call noundef ptr @_ZNKSt7__cxx1112basic_stringIcSt11char_traitsIcESaIcEE4dataEv(ptr noundef nonnull align 8 dereferenceable(32) %3) #12
  %4 = load i64, ptr %startFrom.addr, align 8
  %add.ptr = getelementptr inbounds i8, ptr %call2, i64 %4
  %b_ = getelementptr inbounds %"class.folly::Range", ptr %this1, i32 0, i32 0
  store ptr %add.ptr, ptr %b_, align 8
  %5 = load ptr, ptr %str.addr, align 8
  %call3 = call noundef i64 @_ZNKSt7__cxx1112basic_stringIcSt11char_traitsIcESaIcEE4sizeEv(ptr noundef nonnull align 8 dereferenceable(32) %5) #12
  %6 = load i64, ptr %startFrom.addr, align 8
  %sub = sub i64 %call3, %6
  %7 = load i64, ptr %size.addr, align 8
  %cmp4 = icmp ult i64 %sub, %7
  br i1 %cmp4, label %if.then5, label %if.else

if.then5:                                         ; preds = %if.end
  %8 = load ptr, ptr %str.addr, align 8
  %call6 = call noundef ptr @_ZNKSt7__cxx1112basic_stringIcSt11char_traitsIcESaIcEE4dataEv(ptr noundef nonnull align 8 dereferenceable(32) %8) #12
  %9 = load ptr, ptr %str.addr, align 8
  %call7 = call noundef i64 @_ZNKSt7__cxx1112basic_stringIcSt11char_traitsIcESaIcEE4sizeEv(ptr noundef nonnull align 8 dereferenceable(32) %9) #12
  %add.ptr8 = getelementptr inbounds i8, ptr %call6, i64 %call7
  %e_ = getelementptr inbounds %"class.folly::Range", ptr %this1, i32 0, i32 1
  store ptr %add.ptr8, ptr %e_, align 8
  br label %if.end12

if.else:                                          ; preds = %if.end
  %b_9 = getelementptr inbounds %"class.folly::Range", ptr %this1, i32 0, i32 0
  %10 = load ptr, ptr %b_9, align 8
  %11 = load i64, ptr %size.addr, align 8
  %add.ptr10 = getelementptr inbounds i8, ptr %10, i64 %11
  %e_11 = getelementptr inbounds %"class.folly::Range", ptr %this1, i32 0, i32 1
  store ptr %add.ptr10, ptr %e_11, align 8
  br label %if.end12

if.end12:                                         ; preds = %if.else, %if.then5
  ret void
}

; Function Attrs: mustprogress nounwind uwtable
define noundef zeroext i1 @_ZN8proxygen8ParseURL14parseAuthorityEv(ptr noundef nonnull align 8 dereferenceable(148) %this) #0 align 2 personality ptr @__gxx_personality_v0 {
entry:
  %retval = alloca i1, align 1
  %this.addr = alloca ptr, align 8
  %left = alloca i64, align 8
  %right = alloca i64, align 8
  %pos = alloca i64, align 8
  %agg.tmp = alloca %"class.folly::Range", align 8
  %exn.slot = alloca ptr, align 8
  %ehselector.slot = alloca i32, align 4
  %ref.tmp = alloca %"class.folly::Range", align 8
  %ref.tmp20 = alloca %"class.folly::Range", align 8
  store ptr %this, ptr %this.addr, align 8
  %this1 = load ptr, ptr %this.addr, align 8
  %authority_ = getelementptr inbounds %"class.proxygen::ParseURL", ptr %this1, i32 0, i32 2
  %call = call noundef i64 @_ZNKSt7__cxx1112basic_stringIcSt11char_traitsIcESaIcEE4findEPKcm(ptr noundef nonnull align 8 dereferenceable(32) %authority_, ptr noundef @.str.2, i64 noundef 0) #12
  store i64 %call, ptr %left, align 8
  %authority_2 = getelementptr inbounds %"class.proxygen::ParseURL", ptr %this1, i32 0, i32 2
  %call3 = call noundef i64 @_ZNKSt7__cxx1112basic_stringIcSt11char_traitsIcESaIcEE4findEPKcm(ptr noundef nonnull align 8 dereferenceable(32) %authority_2, ptr noundef @.str.3, i64 noundef 0) #12
  store i64 %call3, ptr %right, align 8
  %authority_4 = getelementptr inbounds %"class.proxygen::ParseURL", ptr %this1, i32 0, i32 2
  %0 = load i64, ptr %right, align 8
  %cmp = icmp ne i64 %0, -1
  br i1 %cmp, label %cond.true, label %cond.false

cond.true:                                        ; preds = %entry
  %1 = load i64, ptr %right, align 8
  br label %cond.end

cond.false:                                       ; preds = %entry
  br label %cond.end

cond.end:                                         ; preds = %cond.false, %cond.true
  %cond = phi i64 [ %1, %cond.true ], [ 0, %cond.false ]
  %call5 = call noundef i64 @_ZNKSt7__cxx1112basic_stringIcSt11char_traitsIcESaIcEE4findEPKcm(ptr noundef nonnull align 8 dereferenceable(32) %authority_4, ptr noundef @.str, i64 noundef %cond) #12
  store i64 %call5, ptr %pos, align 8
  %2 = load i64, ptr %pos, align 8
  %cmp6 = icmp ne i64 %2, -1
  br i1 %cmp6, label %if.then, label %if.end

if.then:                                          ; preds = %cond.end
  %authority_7 = getelementptr inbounds %"class.proxygen::ParseURL", ptr %this1, i32 0, i32 2
  %3 = load i64, ptr %pos, align 8
  %add = add i64 %3, 1
  invoke void @_ZN5folly5RangeIPKcEC2ISaIcES2_TnNS_6detail13IsCharPointerIT0_E10const_typeELi0EEERKNSt7__cxx1112basic_stringIcSt11char_traitsIcET_EENSG_9size_typeESJ_(ptr noundef nonnull align 8 dereferenceable(16) %agg.tmp, ptr noundef nonnull align 8 dereferenceable(32) %authority_7, i64 noundef %add, i64 noundef -1)
          to label %invoke.cont unwind label %lpad

invoke.cont:                                      ; preds = %if.then
  %4 = getelementptr inbounds { ptr, ptr }, ptr %agg.tmp, i32 0, i32 0
  %5 = load ptr, ptr %4, align 8
  %6 = getelementptr inbounds { ptr, ptr }, ptr %agg.tmp, i32 0, i32 1
  %7 = load ptr, ptr %6, align 8
  %call9 = invoke noundef zeroext i16 @_ZN5folly2toItEENSt9enable_ifIXntsr3std7is_sameINS_5RangeIPKcEET_EE5valueES6_E4typeES5_(ptr %5, ptr %7)
          to label %invoke.cont8 unwind label %lpad

invoke.cont8:                                     ; preds = %invoke.cont
  %port_ = getelementptr inbounds %"class.proxygen::ParseURL", ptr %this1, i32 0, i32 8
  store i16 %call9, ptr %port_, align 8
  br label %try.cont

lpad:                                             ; preds = %invoke.cont, %if.then
  %8 = landingpad { ptr, i32 }
          catch ptr null
  %9 = extractvalue { ptr, i32 } %8, 0
  store ptr %9, ptr %exn.slot, align 8
  %10 = extractvalue { ptr, i32 } %8, 1
  store i32 %10, ptr %ehselector.slot, align 4
  br label %catch

catch:                                            ; preds = %lpad
  %exn = load ptr, ptr %exn.slot, align 8
  %11 = call ptr @__cxa_begin_catch(ptr %exn) #12
  store i1 false, ptr %retval, align 1
  invoke void @__cxa_end_catch()
          to label %invoke.cont10 unwind label %terminate.lpad

invoke.cont10:                                    ; preds = %catch
  br label %return

try.cont:                                         ; preds = %invoke.cont8
  br label %if.end

if.end:                                           ; preds = %try.cont, %cond.end
  %12 = load i64, ptr %left, align 8
  %cmp11 = icmp eq i64 %12, -1
  br i1 %cmp11, label %land.lhs.true, label %if.else

land.lhs.true:                                    ; preds = %if.end
  %13 = load i64, ptr %right, align 8
  %cmp12 = icmp eq i64 %13, -1
  br i1 %cmp12, label %if.then13, label %if.else

if.then13:                                        ; preds = %land.lhs.true
  %authority_14 = getelementptr inbounds %"class.proxygen::ParseURL", ptr %this1, i32 0, i32 2
  %14 = load i64, ptr %pos, align 8
  invoke void @_ZN5folly5RangeIPKcEC2ISaIcES2_TnNS_6detail13IsCharPointerIT0_E10const_typeELi0EEERKNSt7__cxx1112basic_stringIcSt11char_traitsIcET_EENSG_9size_typeESJ_(ptr noundef nonnull align 8 dereferenceable(16) %ref.tmp, ptr noundef nonnull align 8 dereferenceable(32) %authority_14, i64 noundef 0, i64 noundef %14)
          to label %invoke.cont15 unwind label %terminate.lpad

invoke.cont15:                                    ; preds = %if.then13
  %host_ = getelementptr inbounds %"class.proxygen::ParseURL", ptr %this1, i32 0, i32 3
  call void @llvm.memcpy.p0.p0.i64(ptr align 8 %host_, ptr align 8 %ref.tmp, i64 16, i1 false)
  store i1 true, ptr %retval, align 1
  br label %return

if.else:                                          ; preds = %land.lhs.true, %if.end
  %15 = load i64, ptr %left, align 8
  %16 = load i64, ptr %right, align 8
  %cmp16 = icmp ult i64 %15, %16
  br i1 %cmp16, label %land.lhs.true17, label %if.else25

land.lhs.true17:                                  ; preds = %if.else
  %17 = load i64, ptr %right, align 8
  %cmp18 = icmp ne i64 %17, -1
  br i1 %cmp18, label %if.then19, label %if.else25

if.then19:                                        ; preds = %land.lhs.true17
  %authority_21 = getelementptr inbounds %"class.proxygen::ParseURL", ptr %this1, i32 0, i32 2
  %18 = load i64, ptr %left, align 8
  %19 = load i64, ptr %right, align 8
  %20 = load i64, ptr %left, align 8
  %sub = sub i64 %19, %20
  %add22 = add i64 %sub, 1
  invoke void @_ZN5folly5RangeIPKcEC2ISaIcES2_TnNS_6detail13IsCharPointerIT0_E10const_typeELi0EEERKNSt7__cxx1112basic_stringIcSt11char_traitsIcET_EENSG_9size_typeESJ_(ptr noundef nonnull align 8 dereferenceable(16) %ref.tmp20, ptr noundef nonnull align 8 dereferenceable(32) %authority_21, i64 noundef %18, i64 noundef %add22)
          to label %invoke.cont23 unwind label %terminate.lpad

invoke.cont23:                                    ; preds = %if.then19
  %host_24 = getelementptr inbounds %"class.proxygen::ParseURL", ptr %this1, i32 0, i32 3
  call void @llvm.memcpy.p0.p0.i64(ptr align 8 %host_24, ptr align 8 %ref.tmp20, i64 16, i1 false)
  store i1 true, ptr %retval, align 1
  br label %return

if.else25:                                        ; preds = %land.lhs.true17, %if.else
  store i1 false, ptr %retval, align 1
  br label %return

return:                                           ; preds = %if.else25, %invoke.cont23, %invoke.cont15, %invoke.cont10
  %21 = load i1, ptr %retval, align 1
  ret i1 %21

terminate.lpad:                                   ; preds = %if.then19, %if.then13, %catch
  %22 = landingpad { ptr, i32 }
          catch ptr null
  %23 = extractvalue { ptr, i32 } %22, 0
  call void @__clang_call_terminate(ptr %23) #13
  unreachable
}