; Function Attrs: mustprogress nounwind uwtable
define noundef zeroext i1 @_ZN8proxygen8ParseURL14parseAuthorityEv(ptr noundef nonnull align 8 dereferenceable(148) %this) local_unnamed_addr #0 align 2 personality ptr @__gxx_personality_v0 {
entry:
  %authority_ = getelementptr inbounds i8, ptr %this, i64 32
  %call = tail call noundef i64 @_ZNKSt7__cxx1112basic_stringIcSt11char_traitsIcESaIcEE4findEPKcm(ptr noundef nonnull align 8 dereferenceable(32) %authority_, ptr noundef nonnull @.str.2, i64 noundef 0) #19
  %call3 = tail call noundef i64 @_ZNKSt7__cxx1112basic_stringIcSt11char_traitsIcESaIcEE4findEPKcm(ptr noundef nonnull align 8 dereferenceable(32) %authority_, ptr noundef nonnull @.str.3, i64 noundef 0) #19
  %cmp = icmp ne i64 %call3, -1
  %cond = select i1 %cmp, i64 %call3, i64 0
  %call5 = tail call noundef i64 @_ZNKSt7__cxx1112basic_stringIcSt11char_traitsIcESaIcEE4findEPKcm(ptr noundef nonnull align 8 dereferenceable(32) %authority_, ptr noundef nonnull @.str, i64 noundef %cond) #19
  %cmp6.not = icmp eq i64 %call5, -1
  br i1 %cmp6.not, label %if.end, label %if.then

if.then:                                          ; preds = %entry
  %call.i = tail call noundef i64 @_ZNKSt7__cxx1112basic_stringIcSt11char_traitsIcESaIcEE4sizeEv(ptr noundef nonnull align 8 dereferenceable(32) %authority_) #19
  %cmp.i.not = icmp ugt i64 %call.i, %call5
  br i1 %cmp.i.not, label %if.end.i, label %if.then.i

if.then.i:                                        ; preds = %if.then
  invoke void @_ZN5folly6detail16throw_exception_ISt12out_of_rangeJPKcEEEvDpT0_(ptr noundef nonnull @.str.5) #18
          to label %.noexc unwind label %lpad

.noexc:                                           ; preds = %if.then.i
  unreachable

if.end.i:                                         ; preds = %if.then
  %add = add nuw i64 %call5, 1
  %call2.i = tail call noundef ptr @_ZNKSt7__cxx1112basic_stringIcSt11char_traitsIcESaIcEE4dataEv(ptr noundef nonnull align 8 dereferenceable(32) %authority_) #19
  %add.ptr.i = getelementptr inbounds i8, ptr %call2.i, i64 %add
  %call3.i = tail call noundef i64 @_ZNKSt7__cxx1112basic_stringIcSt11char_traitsIcESaIcEE4sizeEv(ptr noundef nonnull align 8 dereferenceable(32) %authority_) #19
  %sub.i = sub i64 %call3.i, %add
  %cmp4.i.not = icmp eq i64 %sub.i, -1
  br i1 %cmp4.i.not, label %if.else.i, label %if.then5.i

if.then5.i:                                       ; preds = %if.end.i
  %call6.i = tail call noundef ptr @_ZNKSt7__cxx1112basic_stringIcSt11char_traitsIcESaIcEE4dataEv(ptr noundef nonnull align 8 dereferenceable(32) %authority_) #19
  %call7.i = tail call noundef i64 @_ZNKSt7__cxx1112basic_stringIcSt11char_traitsIcESaIcEE4sizeEv(ptr noundef nonnull align 8 dereferenceable(32) %authority_) #19
  %add.ptr8.i = getelementptr inbounds i8, ptr %call6.i, i64 %call7.i
  br label %invoke.cont

if.else.i:                                        ; preds = %if.end.i
  %add.ptr10.i = getelementptr inbounds i8, ptr %call2.i, i64 %call5
  br label %invoke.cont

invoke.cont:                                      ; preds = %if.else.i, %if.then5.i
  %add.ptr10.sink.i = phi ptr [ %add.ptr8.i, %if.then5.i ], [ %add.ptr10.i, %if.else.i ]
  %call9 = invoke noundef zeroext i16 @_ZN5folly2toItEENSt9enable_ifIXntsr3std7is_sameINS_5RangeIPKcEET_EE5valueES6_E4typeES5_(ptr nonnull %add.ptr.i, ptr %add.ptr10.sink.i)
          to label %invoke.cont8 unwind label %lpad

invoke.cont8:                                     ; preds = %invoke.cont
  %port_ = getelementptr inbounds i8, ptr %this, i64 144
  store i16 %call9, ptr %port_, align 8
  br label %if.end

lpad:                                             ; preds = %if.then.i, %invoke.cont
  %0 = landingpad { ptr, i32 }
          catch ptr null
  %1 = extractvalue { ptr, i32 } %0, 0
  %2 = tail call ptr @__cxa_begin_catch(ptr %1) #19
  invoke void @__cxa_end_catch()
          to label %return unwind label %terminate.lpad

if.end:                                           ; preds = %invoke.cont8, %entry
  %3 = and i64 %call3, %call
  %or.cond = icmp eq i64 %3, -1
  br i1 %or.cond, label %if.then13, label %if.else

if.then13:                                        ; preds = %if.end
  %call.i12 = tail call noundef i64 @_ZNKSt7__cxx1112basic_stringIcSt11char_traitsIcESaIcEE4sizeEv(ptr noundef nonnull align 8 dereferenceable(32) %authority_) #19
  %call2.i14 = tail call noundef ptr @_ZNKSt7__cxx1112basic_stringIcSt11char_traitsIcESaIcEE4dataEv(ptr noundef nonnull align 8 dereferenceable(32) %authority_) #19
  %call3.i15 = tail call noundef i64 @_ZNKSt7__cxx1112basic_stringIcSt11char_traitsIcESaIcEE4sizeEv(ptr noundef nonnull align 8 dereferenceable(32) %authority_) #19
  %cmp4.i16 = icmp ult i64 %call3.i15, %call5
  br i1 %cmp4.i16, label %if.then5.i20, label %if.else.i17

if.then5.i20:                                     ; preds = %if.then13
  %call6.i21 = tail call noundef ptr @_ZNKSt7__cxx1112basic_stringIcSt11char_traitsIcESaIcEE4dataEv(ptr noundef nonnull align 8 dereferenceable(32) %authority_) #19
  %call7.i22 = tail call noundef i64 @_ZNKSt7__cxx1112basic_stringIcSt11char_traitsIcESaIcEE4sizeEv(ptr noundef nonnull align 8 dereferenceable(32) %authority_) #19
  %add.ptr8.i23 = getelementptr inbounds i8, ptr %call6.i21, i64 %call7.i22
  br label %return.sink.split

if.else.i17:                                      ; preds = %if.then13
  %add.ptr10.i18 = getelementptr inbounds i8, ptr %call2.i14, i64 %call5
  br label %return.sink.split

if.else:                                          ; preds = %if.end
  %cmp16 = icmp ult i64 %call, %call3
  %or.cond1 = and i1 %cmp16, %cmp
  br i1 %or.cond1, label %if.then19, label %return

if.then19:                                        ; preds = %if.else
  %sub = sub i64 %call3, %call
  %add22 = add i64 %sub, 1
  %call.i25 = tail call noundef i64 @_ZNKSt7__cxx1112basic_stringIcSt11char_traitsIcESaIcEE4sizeEv(ptr noundef nonnull align 8 dereferenceable(32) %authority_) #19
  %cmp.i26 = icmp ult i64 %call.i25, %call
  br i1 %cmp.i26, label %if.then.i40, label %if.end.i27

if.then.i40:                                      ; preds = %if.then19
  invoke void @_ZN5folly6detail16throw_exception_ISt12out_of_rangeJPKcEEEvDpT0_(ptr noundef nonnull @.str.5) #18
          to label %.noexc41 unwind label %terminate.lpad

.noexc41:                                         ; preds = %if.then.i40
  unreachable

if.end.i27:                                       ; preds = %if.then19
  %call2.i28 = tail call noundef ptr @_ZNKSt7__cxx1112basic_stringIcSt11char_traitsIcESaIcEE4dataEv(ptr noundef nonnull align 8 dereferenceable(32) %authority_) #19
  %add.ptr.i29 = getelementptr inbounds i8, ptr %call2.i28, i64 %call
  %call3.i30 = tail call noundef i64 @_ZNKSt7__cxx1112basic_stringIcSt11char_traitsIcESaIcEE4sizeEv(ptr noundef nonnull align 8 dereferenceable(32) %authority_) #19
  %sub.i31 = sub i64 %call3.i30, %call
  %cmp4.i32 = icmp ult i64 %sub.i31, %add22
  br i1 %cmp4.i32, label %if.then5.i36, label %if.else.i33

if.then5.i36:                                     ; preds = %if.end.i27
  %call6.i37 = tail call noundef ptr @_ZNKSt7__cxx1112basic_stringIcSt11char_traitsIcESaIcEE4dataEv(ptr noundef nonnull align 8 dereferenceable(32) %authority_) #19
  %call7.i38 = tail call noundef i64 @_ZNKSt7__cxx1112basic_stringIcSt11char_traitsIcESaIcEE4sizeEv(ptr noundef nonnull align 8 dereferenceable(32) %authority_) #19
  %add.ptr8.i39 = getelementptr inbounds i8, ptr %call6.i37, i64 %call7.i38
  br label %return.sink.split

if.else.i33:                                      ; preds = %if.end.i27
  %add.ptr10.i34 = getelementptr inbounds i8, ptr %add.ptr.i29, i64 %add22
  br label %return.sink.split

return.sink.split:                                ; preds = %if.then5.i36, %if.else.i33, %if.then5.i20, %if.else.i17
  %add.ptr.i29.sink = phi ptr [ %call2.i14, %if.else.i17 ], [ %call2.i14, %if.then5.i20 ], [ %add.ptr.i29, %if.else.i33 ], [ %add.ptr.i29, %if.then5.i36 ]
  %add.ptr10.sink.i35.sink = phi ptr [ %add.ptr10.i18, %if.else.i17 ], [ %add.ptr8.i23, %if.then5.i20 ], [ %add.ptr10.i34, %if.else.i33 ], [ %add.ptr8.i39, %if.then5.i36 ]
  %host_24 = getelementptr inbounds i8, ptr %this, i64 64
  store ptr %add.ptr.i29.sink, ptr %host_24, align 8
  %ref.tmp20.sroa.3.0.host_24.sroa_idx = getelementptr inbounds i8, ptr %this, i64 72
  store ptr %add.ptr10.sink.i35.sink, ptr %ref.tmp20.sroa.3.0.host_24.sroa_idx, align 8
  br label %return

return:                                           ; preds = %return.sink.split, %if.else, %lpad
  %retval.0 = phi i1 [ false, %lpad ], [ false, %if.else ], [ true, %return.sink.split ]
  ret i1 %retval.0

terminate.lpad:                                   ; preds = %if.then.i40, %lpad
  %4 = landingpad { ptr, i32 }
          catch ptr null
  %5 = extractvalue { ptr, i32 } %4, 0
  tail call void @__clang_call_terminate(ptr %5) #20
  unreachable
}